target datalayout = "e-m:e-p270:32:32-p271:32:32-p272:64:64-i64:64-i128:128-f80:128-n8:16:32:64-S128"
target triple = "x86_64-pc-linux-gnu"

%struct.Expr = type { i32 }
%struct.ReturningExpr = type { %struct.Expr, i32, i8, ptr }

; Function Attrs: nounwind uwtable
define internal zeroext i1 @_equalReturningExpr(ptr noundef %0, ptr noundef %1) #0 {
  %3 = alloca i1, align 1
  %4 = alloca ptr, align 8
  %5 = alloca ptr, align 8
  store ptr %0, ptr %4, align 8
  store ptr %1, ptr %5, align 8
  br label %6

6:                                                ; preds = %2
  %7 = load ptr, ptr %4, align 8
  %8 = getelementptr inbounds nuw %struct.ReturningExpr, ptr %7, i32 0, i32 1
  %9 = load i32, ptr %8, align 4
  %10 = load ptr, ptr %5, align 8
  %11 = getelementptr inbounds nuw %struct.ReturningExpr, ptr %10, i32 0, i32 1
  %12 = load i32, ptr %11, align 4
  %13 = icmp ne i32 %9, %12
  br i1 %13, label %14, label %15

14:                                               ; preds = %6
  store i1 false, ptr %3, align 1
  br label %43

15:                                               ; preds = %6
  br label %16

16:                                               ; preds = %15
  br label %17

17:                                               ; preds = %16
  %18 = load ptr, ptr %4, align 8
  %19 = getelementptr inbounds nuw %struct.ReturningExpr, ptr %18, i32 0, i32 2
  %20 = load i8, ptr %19, align 8, !range !4, !noundef !5
  %21 = trunc i8 %20 to i1
  %22 = zext i1 %21 to i32
  %23 = load ptr, ptr %5, align 8
  %24 = getelementptr inbounds nuw %struct.ReturningExpr, ptr %23, i32 0, i32 2
  %25 = load i8, ptr %24, align 8, !range !4, !noundef !5
  %26 = trunc i8 %25 to i1
  %27 = zext i1 %26 to i32
  %28 = icmp ne i32 %22, %27
  br i1 %28, label %29, label %30

29:                                               ; preds = %17
  store i1 false, ptr %3, align 1
  br label %43

30:                                               ; preds = %17
  br label %31

31:                                               ; preds = %30
  br label %32

32:                                               ; preds = %31
  %33 = load ptr, ptr %4, align 8
  %34 = getelementptr inbounds nuw %struct.ReturningExpr, ptr %33, i32 0, i32 3
  %35 = load ptr, ptr %34, align 8
  %36 = load ptr, ptr %5, align 8
  %37 = getelementptr inbounds nuw %struct.ReturningExpr, ptr %36, i32 0, i32 3
  %38 = load ptr, ptr %37, align 8
  %39 = call zeroext i1 @equal(ptr noundef %35, ptr noundef %38)
  br i1 %39, label %41, label %40

40:                                               ; preds = %32
  store i1 false, ptr %3, align 1
  br label %43

41:                                               ; preds = %32
  br label %42

42:                                               ; preds = %41
  store i1 true, ptr %3, align 1
  br label %43

43:                                               ; preds = %42, %40, %29, %14
  %44 = load i1, ptr %3, align 1
  ret i1 %44
}