; Function Attrs: nounwind uwtable
define internal fastcc zeroext i1 @_equalReturningExpr(ptr noundef nonnull readonly captures(none) %0, ptr noundef nonnull readonly captures(none) %1) unnamed_addr #0 {
  %3 = getelementptr inbounds nuw i8, ptr %0, i64 4
  %4 = load i32, ptr %3, align 4
  %5 = getelementptr inbounds nuw i8, ptr %1, i64 4
  %6 = load i32, ptr %5, align 4
  %.not = icmp eq i32 %4, %6
  br i1 %.not, label %7, label %18

7:                                                ; preds = %2
  %8 = getelementptr inbounds nuw i8, ptr %0, i64 8
  %9 = load i8, ptr %8, align 8, !range !4, !noundef !5
  %10 = getelementptr inbounds nuw i8, ptr %1, i64 8
  %11 = load i8, ptr %10, align 8, !range !4, !noundef !5
  %.not7 = icmp eq i8 %9, %11
  br i1 %.not7, label %12, label %18

12:                                               ; preds = %7
  %13 = getelementptr inbounds nuw i8, ptr %0, i64 16
  %14 = load ptr, ptr %13, align 8
  %15 = getelementptr inbounds nuw i8, ptr %1, i64 16
  %16 = load ptr, ptr %15, align 8
  %17 = tail call zeroext i1 @equal(ptr noundef %14, ptr noundef %16)
  br label %18

18:                                               ; preds = %12, %7, %2
  %.0 = phi i1 [ false, %2 ], [ false, %7 ], [ %17, %12 ]
  ret i1 %.0
}